target datalayout = "e-m:e-p270:32:32-p271:32:32-p272:64:64-i64:64-i128:128-f80:128-n8:16:32:64-S128"
target triple = "x86_64-pc-linux-gnu"

%"class.clang::SemaCUDA" = type <{ %"class.clang::SemaBase", %"class.llvm::DenseSet", %"class.llvm::DenseMap.0", %"struct.clang::SemaCUDA::CUDATargetContext", i32, [4 x i8] }>
%"class.clang::SemaBase" = type { ptr }
%"class.llvm::DenseSet" = type { %"class.llvm::detail::DenseSetImpl" }
%"class.llvm::detail::DenseSetImpl" = type { %"class.llvm::DenseMap" }
%"class.llvm::DenseMap" = type <{ ptr, i32, i32, i32, [4 x i8] }>
%"class.llvm::DenseMap.0" = type <{ ptr, i32, i32, i32, [4 x i8] }>
%"struct.clang::SemaCUDA::CUDATargetContext" = type { i32, i32, ptr }

; Function Attrs: mustprogress nounwind uwtable
define dso_local noundef zeroext i1 @_ZN5clang8SemaCUDA18PopForceHostDeviceEv(ptr noundef nonnull align 8 dereferenceable(76) %0) #0 align 2 {
  %2 = alloca i1, align 1
  %3 = alloca ptr, align 8
  store ptr %0, ptr %3, align 8
  %4 = load ptr, ptr %3, align 8
  %5 = getelementptr inbounds nuw %"class.clang::SemaCUDA", ptr %4, i32 0, i32 4
  %6 = load i32, ptr %5, align 8
  %7 = icmp eq i32 %6, 0
  br i1 %7, label %8, label %9

8:                                                ; preds = %1
  store i1 false, ptr %2, align 1
  br label %13

9:                                                ; preds = %1
  %10 = getelementptr inbounds nuw %"class.clang::SemaCUDA", ptr %4, i32 0, i32 4
  %11 = load i32, ptr %10, align 8
  %12 = add i32 %11, -1
  store i32 %12, ptr %10, align 8
  store i1 true, ptr %2, align 1
  br label %13

13:                                               ; preds = %9, %8
  %14 = load i1, ptr %2, align 1
  ret i1 %14
}