; Function Attrs: mustprogress nofree norecurse nosync nounwind willreturn memory(argmem: readwrite) uwtable
define dso_local noundef zeroext i1 @_ZN5clang8SemaCUDA18PopForceHostDeviceEv(ptr noundef nonnull align 8 captures(none) dereferenceable(76) %0) local_unnamed_addr #2 align 2 {
  %2 = getelementptr inbounds nuw i8, ptr %0, i64 72
  %3 = load i32, ptr %2, align 8
  %4 = icmp ne i32 %3, 0
  br i1 %4, label %5, label %7

5:                                                ; preds = %1
  %6 = add i32 %3, -1
  store i32 %6, ptr %2, align 8
  br label %7

7:                                                ; preds = %1, %5
  ret i1 %4
}